; Function Attrs: mustprogress uwtable
define noundef zeroext i1 @_ZNK18OpenImageIO_v2_6_014ParamValueList12getattributeENS_17basic_string_viewIcSt11char_traitsIcEEERNSt7__cxx1112basic_stringIcS3_SaIcEEEb(ptr nocapture noundef nonnull readonly align 8 dereferenceable(24) %this, ptr nocapture noundef readonly %name, ptr noundef nonnull align 8 dereferenceable(32) %value, i1 noundef zeroext %casesensitive) local_unnamed_addr #10 align 2 personality ptr @__gxx_personality_v0 {
entry:
  %agg.tmp = alloca %"class.OpenImageIO_v2_6_0::basic_string_view", align 8
  %agg.tmp2 = alloca %"struct.OpenImageIO_v2_6_0::TypeDesc", align 4
  %s = alloca %"class.OpenImageIO_v2_6_0::ustring", align 8
  %agg.tmp6 = alloca %"struct.OpenImageIO_v2_6_0::TypeDesc", align 4
  %agg.tmp10 = alloca %"struct.OpenImageIO_v2_6_0::TypeDesc", align 4
  %0 = load ptr, ptr %name, align 8
  store ptr %0, ptr %agg.tmp, align 8
  %m_len.i = getelementptr inbounds i8, ptr %agg.tmp, i64 8
  %m_len.i.i = getelementptr inbounds i8, ptr %name, i64 8
  %1 = load i64, ptr %m_len.i.i, align 8
  store i64 %1, ptr %m_len.i, align 8
  store <4 x i8> <i8 0, i8 1, i8 0, i8 0>, ptr %agg.tmp2, align 4
  %arraylen.i = getelementptr inbounds i8, ptr %agg.tmp2, i64 4
  store i32 0, ptr %arraylen.i, align 4
  %call = call ptr @_ZNK18OpenImageIO_v2_6_014ParamValueList4findENS_17basic_string_viewIcSt11char_traitsIcEEENS_8TypeDescEb(ptr noundef nonnull align 8 dereferenceable(24) %this, ptr noundef nonnull %agg.tmp, ptr noundef nonnull %agg.tmp2, i1 noundef zeroext %casesensitive)
  %_M_finish.i = getelementptr inbounds i8, ptr %this, i64 8
  %2 = load ptr, ptr %_M_finish.i, align 8
  %cmp.i.not = icmp eq ptr %call, %2
  br i1 %cmp.i.not, label %return, label %if.then

if.then:                                          ; preds = %entry
  store ptr null, ptr %s, align 8
  tail call void @llvm.experimental.noalias.scope.decl(metadata !250)
  %m_type.i = getelementptr inbounds i8, ptr %call, i64 8
  %3 = load i8, ptr %m_type.i, align 4, !noalias !250
  store i8 %3, ptr %agg.tmp6, align 4, !alias.scope !250
  %aggregate.i.i = getelementptr inbounds i8, ptr %agg.tmp6, i64 1
  %aggregate3.i.i = getelementptr inbounds i8, ptr %call, i64 9
  %4 = load i8, ptr %aggregate3.i.i, align 1, !noalias !250
  store i8 %4, ptr %aggregate.i.i, align 1, !alias.scope !250
  %vecsemantics.i.i = getelementptr inbounds i8, ptr %agg.tmp6, i64 2
  %vecsemantics4.i.i = getelementptr inbounds i8, ptr %call, i64 10
  %5 = load i8, ptr %vecsemantics4.i.i, align 2, !noalias !250
  store i8 %5, ptr %vecsemantics.i.i, align 2, !alias.scope !250
  %reserved.i.i = getelementptr inbounds i8, ptr %agg.tmp6, i64 3
  store i8 0, ptr %reserved.i.i, align 1, !alias.scope !250
  %arraylen.i.i = getelementptr inbounds i8, ptr %agg.tmp6, i64 4
  %arraylen5.i.i = getelementptr inbounds i8, ptr %call, i64 12
  %6 = load i32, ptr %arraylen5.i.i, align 4, !noalias !250
  store i32 %6, ptr %arraylen.i.i, align 4, !alias.scope !250
  %m_nonlocal.i = getelementptr inbounds i8, ptr %call, i64 38
  %7 = load i8, ptr %m_nonlocal.i, align 2
  %8 = and i8 %7, 1
  %tobool.not.i = icmp eq i8 %8, 0
  %m_data.i = getelementptr inbounds i8, ptr %call, i64 16
  %9 = load ptr, ptr %m_data.i, align 8
  %cond.i = select i1 %tobool.not.i, ptr %m_data.i, ptr %9
  store <4 x i8> <i8 13, i8 1, i8 0, i8 0>, ptr %agg.tmp10, align 4
  %arraylen.i5 = getelementptr inbounds i8, ptr %agg.tmp10, i64 4
  store i32 0, ptr %arraylen.i5, align 4
  %call11 = call noundef zeroext i1 @_ZN18OpenImageIO_v2_6_012convert_typeENS_8TypeDescEPKvS0_Pvi(ptr noundef nonnull %agg.tmp6, ptr noundef %cond.i, ptr noundef nonnull %agg.tmp10, ptr noundef nonnull %s, i32 noundef 1)
  br i1 %call11, label %if.then14, label %return

if.then14:                                        ; preds = %if.then
  %10 = load ptr, ptr %s, align 8
  %tobool.not.i6 = icmp eq ptr %10, null
  %str.i = getelementptr inbounds i8, ptr %10, i64 -56
  %retval.0.i = select i1 %tobool.not.i6, ptr @_ZN18OpenImageIO_v2_6_07ustring16empty_std_stringB5cxx11E, ptr %str.i
  %call17 = call noundef nonnull align 8 dereferenceable(32) ptr @_ZNSt7__cxx1112basic_stringIcSt11char_traitsIcESaIcEEaSERKS4_(ptr noundef nonnull align 8 dereferenceable(32) %value, ptr noundef nonnull align 8 dereferenceable(32) %retval.0.i)
  br label %return

return:                                           ; preds = %if.then14, %if.then, %entry
  %retval.0 = phi i1 [ false, %entry ], [ true, %if.then14 ], [ false, %if.then ]
  ret i1 %retval.0
}